; Function Attrs: nounwind uwtable
define dso_local i32 @get_transform_fromsql(i32 noundef %0, i32 noundef %1, ptr noundef %2) local_unnamed_addr #0 {
  %4 = tail call zeroext i1 @list_member_oid(ptr noundef %2, i32 noundef %0) #8
  br i1 %4, label %5, label %17

5:                                                ; preds = %3
  %6 = zext i32 %0 to i64
  %7 = zext i32 %1 to i64
  %8 = tail call ptr @SearchSysCache2(i32 noundef 71, i64 noundef %6, i64 noundef %7) #8
  %.not = icmp eq ptr %8, null
  br i1 %.not, label %17, label %9

9:                                                ; preds = %5
  %10 = getelementptr i8, ptr %8, i64 16
  %.val = load ptr, ptr %10, align 8
  %11 = getelementptr inbounds nuw i8, ptr %.val, i64 22
  %12 = load i8, ptr %11, align 2
  %13 = zext i8 %12 to i64
  %14 = getelementptr inbounds nuw i8, ptr %.val, i64 %13
  %15 = getelementptr inbounds nuw i8, ptr %14, i64 12
  %16 = load i32, ptr %15, align 4
  tail call void @ReleaseSysCache(ptr noundef nonnull %8) #8
  br label %17

17:                                               ; preds = %5, %3, %9
  %.0 = phi i32 [ %16, %9 ], [ 0, %3 ], [ 0, %5 ]
  ret i32 %.0
}